; ModuleID = '63/1020.c'
source_filename = "63/1020.c"
target datalayout = "e-m:e-p270:32:32-p271:32:32-p272:64:64-i64:64-f80:128-n8:16:32:64-S128"
target triple = "x86_64-pc-linux-gnu"

@.str = private unnamed_addr constant [6 x i8] c"%d %d\00", align 1
@.str.1 = private unnamed_addr constant [3 x i8] c"%d\00", align 1
@.str.2 = private unnamed_addr constant [4 x i8] c"%d\0A\00", align 1
@.str.3 = private unnamed_addr constant [4 x i8] c"%d \00", align 1

; Function Attrs: noinline nounwind uwtable
define dso_local i32 @main() #0 {
  %1 = alloca i32, align 4
  %2 = alloca [200 x [200 x i32]], align 16
  %3 = alloca [200 x [200 x i32]], align 16
  %4 = alloca [200 x [200 x i32]], align 16
  %5 = alloca i32, align 4
  %6 = alloca i32, align 4
  %7 = alloca i32, align 4
  %8 = alloca i32, align 4
  %9 = alloca i32, align 4
  %10 = alloca i32, align 4
  %11 = alloca i32, align 4
  store i32 0, i32* %1, align 4
  %12 = call i32 (i8*, ...) @__isoc99_scanf(i8* getelementptr inbounds ([6 x i8], [6 x i8]* @.str, i64 0, i64 0), i32* %8, i32* %9)
  store i32 0, i32* %5, align 4
  br label %13

13:                                               ; preds = %36, %0
  %14 = load i32, i32* %5, align 4
  %15 = load i32, i32* %8, align 4
  %16 = sub nsw i32 %15, 1
  %17 = icmp sle i32 %14, %16
  br i1 %17, label %18, label %39

18:                                               ; preds = %13
  store i32 0, i32* %6, align 4
  br label %19

19:                                               ; preds = %32, %18
  %20 = load i32, i32* %6, align 4
  %21 = load i32, i32* %9, align 4
  %22 = sub nsw i32 %21, 1
  %23 = icmp sle i32 %20, %22
  br i1 %23, label %24, label %35

24:                                               ; preds = %19
  %25 = load i32, i32* %5, align 4
  %26 = sext i32 %25 to i64
  %27 = getelementptr inbounds [200 x [200 x i32]], [200 x [200 x i32]]* %2, i64 0, i64 %26
  %28 = load i32, i32* %6, align 4
  %29 = sext i32 %28 to i64
  %30 = getelementptr inbounds [200 x i32], [200 x i32]* %27, i64 0, i64 %29
  %31 = call i32 (i8*, ...) @__isoc99_scanf(i8* getelementptr inbounds ([3 x i8], [3 x i8]* @.str.1, i64 0, i64 0), i32* %30)
  br label %32

32:                                               ; preds = %24
  %33 = load i32, i32* %6, align 4
  %34 = add nsw i32 %33, 1
  store i32 %34, i32* %6, align 4
  br label %19

35:                                               ; preds = %19
  br label %36

36:                                               ; preds = %35
  %37 = load i32, i32* %5, align 4
  %38 = add nsw i32 %37, 1
  store i32 %38, i32* %5, align 4
  br label %13

39:                                               ; preds = %13
  %40 = call i32 (i8*, ...) @__isoc99_scanf(i8* getelementptr inbounds ([6 x i8], [6 x i8]* @.str, i64 0, i64 0), i32* %10, i32* %11)
  store i32 0, i32* %5, align 4
  br label %41

41:                                               ; preds = %64, %39
  %42 = load i32, i32* %5, align 4
  %43 = load i32, i32* %10, align 4
  %44 = sub nsw i32 %43, 1
  %45 = icmp sle i32 %42, %44
  br i1 %45, label %46, label %67

46:                                               ; preds = %41
  store i32 0, i32* %6, align 4
  br label %47

47:                                               ; preds = %60, %46
  %48 = load i32, i32* %6, align 4
  %49 = load i32, i32* %11, align 4
  %50 = sub nsw i32 %49, 1
  %51 = icmp sle i32 %48, %50
  br i1 %51, label %52, label %63

52:                                               ; preds = %47
  %53 = load i32, i32* %5, align 4
  %54 = sext i32 %53 to i64
  %55 = getelementptr inbounds [200 x [200 x i32]], [200 x [200 x i32]]* %3, i64 0, i64 %54
  %56 = load i32, i32* %6, align 4
  %57 = sext i32 %56 to i64
  %58 = getelementptr inbounds [200 x i32], [200 x i32]* %55, i64 0, i64 %57
  %59 = call i32 (i8*, ...) @__isoc99_scanf(i8* getelementptr inbounds ([3 x i8], [3 x i8]* @.str.1, i64 0, i64 0), i32* %58)
  br label %60

60:                                               ; preds = %52
  %61 = load i32, i32* %6, align 4
  %62 = add nsw i32 %61, 1
  store i32 %62, i32* %6, align 4
  br label %47

63:                                               ; preds = %47
  br label %64

64:                                               ; preds = %63
  %65 = load i32, i32* %5, align 4
  %66 = add nsw i32 %65, 1
  store i32 %66, i32* %5, align 4
  br label %41

67:                                               ; preds = %41
  store i32 0, i32* %5, align 4
  br label %68

68:                                               ; preds = %149, %67
  %69 = load i32, i32* %5, align 4
  %70 = load i32, i32* %8, align 4
  %71 = icmp slt i32 %69, %70
  br i1 %71, label %72, label %152

72:                                               ; preds = %68
  store i32 0, i32* %6, align 4
  br label %73

73:                                               ; preds = %145, %72
  %74 = load i32, i32* %6, align 4
  %75 = load i32, i32* %11, align 4
  %76 = icmp slt i32 %74, %75
  br i1 %76, label %77, label %148

77:                                               ; preds = %73
  %78 = load i32, i32* %5, align 4
  %79 = sext i32 %78 to i64
  %80 = getelementptr inbounds [200 x [200 x i32]], [200 x [200 x i32]]* %4, i64 0, i64 %79
  %81 = load i32, i32* %6, align 4
  %82 = sext i32 %81 to i64
  %83 = getelementptr inbounds [200 x i32], [200 x i32]* %80, i64 0, i64 %82
  store i32 0, i32* %83, align 4
  store i32 0, i32* %7, align 4
  br label %84

84:                                               ; preds = %118, %77
  %85 = load i32, i32* %7, align 4
  %86 = load i32, i32* %9, align 4
  %87 = icmp slt i32 %85, %86
  br i1 %87, label %88, label %121

88:                                               ; preds = %84
  %89 = load i32, i32* %5, align 4
  %90 = sext i32 %89 to i64
  %91 = getelementptr inbounds [200 x [200 x i32]], [200 x [200 x i32]]* %4, i64 0, i64 %90
  %92 = load i32, i32* %6, align 4
  %93 = sext i32 %92 to i64
  %94 = getelementptr inbounds [200 x i32], [200 x i32]* %91, i64 0, i64 %93
  %95 = load i32, i32* %94, align 4
  %96 = load i32, i32* %5, align 4
  %97 = sext i32 %96 to i64
  %98 = getelementptr inbounds [200 x [200 x i32]], [200 x [200 x i32]]* %2, i64 0, i64 %97
  %99 = load i32, i32* %7, align 4
  %100 = sext i32 %99 to i64
  %101 = getelementptr inbounds [200 x i32], [200 x i32]* %98, i64 0, i64 %100
  %102 = load i32, i32* %101, align 4
  %103 = load i32, i32* %7, align 4
  %104 = sext i32 %103 to i64
  %105 = getelementptr inbounds [200 x [200 x i32]], [200 x [200 x i32]]* %3, i64 0, i64 %104
  %106 = load i32, i32* %6, align 4
  %107 = sext i32 %106 to i64
  %108 = getelementptr inbounds [200 x i32], [200 x i32]* %105, i64 0, i64 %107
  %109 = load i32, i32* %108, align 4
  %110 = mul nsw i32 %102, %109
  %111 = add nsw i32 %95, %110
  %112 = load i32, i32* %5, align 4
  %113 = sext i32 %112 to i64
  %114 = getelementptr inbounds [200 x [200 x i32]], [200 x [200 x i32]]* %4, i64 0, i64 %113
  %115 = load i32, i32* %6, align 4
  %116 = sext i32 %115 to i64
  %117 = getelementptr inbounds [200 x i32], [200 x i32]* %114, i64 0, i64 %116
  store i32 %111, i32* %117, align 4
  br label %118

118:                                              ; preds = %88
  %119 = load i32, i32* %7, align 4
  %120 = add nsw i32 %119, 1
  store i32 %120, i32* %7, align 4
  br label %84

121:                                              ; preds = %84
  %122 = load i32, i32* %6, align 4
  %123 = load i32, i32* %11, align 4
  %124 = sub nsw i32 %123, 1
  %125 = icmp eq i32 %122, %124
  br i1 %125, label %126, label %135

126:                                              ; preds = %121
  %127 = load i32, i32* %5, align 4
  %128 = sext i32 %127 to i64
  %129 = getelementptr inbounds [200 x [200 x i32]], [200 x [200 x i32]]* %4, i64 0, i64 %128
  %130 = load i32, i32* %6, align 4
  %131 = sext i32 %130 to i64
  %132 = getelementptr inbounds [200 x i32], [200 x i32]* %129, i64 0, i64 %131
  %133 = load i32, i32* %132, align 4
  %134 = call i32 (i8*, ...) @printf(i8* getelementptr inbounds ([4 x i8], [4 x i8]* @.str.2, i64 0, i64 0), i32 %133)
  br label %144

135:                                              ; preds = %121
  %136 = load i32, i32* %5, align 4
  %137 = sext i32 %136 to i64
  %138 = getelementptr inbounds [200 x [200 x i32]], [200 x [200 x i32]]* %4, i64 0, i64 %137
  %139 = load i32, i32* %6, align 4
  %140 = sext i32 %139 to i64
  %141 = getelementptr inbounds [200 x i32], [200 x i32]* %138, i64 0, i64 %140
  %142 = load i32, i32* %141, align 4
  %143 = call i32 (i8*, ...) @printf(i8* getelementptr inbounds ([4 x i8], [4 x i8]* @.str.3, i64 0, i64 0), i32 %142)
  br label %144

144:                                              ; preds = %135, %126
  br label %145

145:                                              ; preds = %144
  %146 = load i32, i32* %6, align 4
  %147 = add nsw i32 %146, 1
  store i32 %147, i32* %6, align 4
  br label %73

148:                                              ; preds = %73
  br label %149

149:                                              ; preds = %148
  %150 = load i32, i32* %5, align 4
  %151 = add nsw i32 %150, 1
  store i32 %151, i32* %5, align 4
  br label %68

152:                                              ; preds = %68
  %153 = load i32, i32* %1, align 4
  ret i32 %153
}

declare dso_local i32 @__isoc99_scanf(i8*, ...) #1

declare dso_local i32 @printf(i8*, ...) #1


!llvm.module.flags = !{!0}
!llvm.ident = !{!1}

!0 = !{i32 1, !"wchar_size", i32 4}
!1 = !{!"clang version 10.0.0-4ubuntu1 "}
